target datalayout = "e-m:e-p270:32:32-p271:32:32-p272:64:64-i64:64-i128:128-f80:128-n8:16:32:64-S128"
target triple = "x86_64-pc-linux-gnu"

%struct.tlsextctx_st = type { ptr, i32 }

@bio_err = external global ptr, align 8
@.str.570 = private unnamed_addr constant [30 x i8] c"Can't use SSL_get_servername\0A\00", align 1

; Function Attrs: nounwind uwtable
define internal i32 @ssl_servername_cb(ptr noundef %0, ptr noundef %1, ptr noundef %2) #0 {
  %4 = alloca ptr, align 8
  %5 = alloca ptr, align 8
  %6 = alloca ptr, align 8
  %7 = alloca ptr, align 8
  %8 = alloca ptr, align 8
  store ptr %0, ptr %4, align 8, !tbaa !13
  store ptr %1, ptr %5, align 8, !tbaa !118
  store ptr %2, ptr %6, align 8, !tbaa !44
  call void @llvm.lifetime.start.p0(i64 8, ptr %7) #10
  %9 = load ptr, ptr %6, align 8, !tbaa !44
  store ptr %9, ptr %7, align 8, !tbaa !120
  call void @llvm.lifetime.start.p0(i64 8, ptr %8) #10
  %10 = load ptr, ptr %4, align 8, !tbaa !13
  %11 = call ptr @SSL_get_servername(ptr noundef %10, i32 noundef 0)
  store ptr %11, ptr %8, align 8, !tbaa !29
  %12 = load ptr, ptr %4, align 8, !tbaa !13
  %13 = call i32 @SSL_get_servername_type(ptr noundef %12)
  %14 = icmp ne i32 %13, -1
  br i1 %14, label %15, label %27

15:                                               ; preds = %3
  %16 = load ptr, ptr %4, align 8, !tbaa !13
  %17 = call i32 @SSL_session_reused(ptr noundef %16)
  %18 = icmp ne i32 %17, 0
  br i1 %18, label %22, label %19

19:                                               ; preds = %15
  %20 = load ptr, ptr %8, align 8, !tbaa !29
  %21 = icmp ne ptr %20, null
  br label %22

22:                                               ; preds = %19, %15
  %23 = phi i1 [ false, %15 ], [ %21, %19 ]
  %24 = zext i1 %23 to i32
  %25 = load ptr, ptr %7, align 8, !tbaa !120
  %26 = getelementptr inbounds nuw %struct.tlsextctx_st, ptr %25, i32 0, i32 1
  store i32 %24, ptr %26, align 8, !tbaa !122
  br label %30

27:                                               ; preds = %3
  %28 = load ptr, ptr @bio_err, align 8, !tbaa !40
  %29 = call i32 (ptr, ptr, ...) @BIO_printf(ptr noundef %28, ptr noundef @.str.570)
  br label %30

30:                                               ; preds = %27, %22
  call void @llvm.lifetime.end.p0(i64 8, ptr %8) #10
  call void @llvm.lifetime.end.p0(i64 8, ptr %7) #10
  ret i32 0
}