; Function Attrs: nounwind uwtable
define internal noundef i32 @ssl_servername_cb(ptr noundef %0, ptr readnone captures(none) %1, ptr noundef writeonly captures(none) %2) #0 {
  %4 = tail call ptr @SSL_get_servername(ptr noundef %0, i32 noundef 0) #15
  %5 = tail call i32 @SSL_get_servername_type(ptr noundef %0) #15
  %.not = icmp eq i32 %5, -1
  br i1 %.not, label %12, label %6

6:                                                ; preds = %3
  %7 = tail call i32 @SSL_session_reused(ptr noundef %0) #15
  %.not6 = icmp eq i32 %7, 0
  %8 = icmp ne ptr %4, null
  %9 = select i1 %.not6, i1 %8, i1 false
  %10 = zext i1 %9 to i32
  %11 = getelementptr inbounds nuw i8, ptr %2, i64 8
  store i32 %10, ptr %11, align 8, !tbaa !77
  br label %15

12:                                               ; preds = %3
  %13 = load ptr, ptr @bio_err, align 8, !tbaa !19
  %14 = tail call i32 (ptr, ptr, ...) @BIO_printf(ptr noundef %13, ptr noundef nonnull @.str.570) #15
  br label %15

15:                                               ; preds = %12, %6
  ret i32 0
}